target datalayout = "e-m:e-p270:32:32-p271:32:32-p272:64:64-i64:64-i128:128-f80:128-n8:16:32:64-S128"
target triple = "x86_64-pc-linux-gnu"

%struct.ObjectAddress = type { i32, i32, i32 }
%struct.ObjectAddresses = type { ptr, ptr, i32, i32 }

; Function Attrs: nounwind uwtable
define dso_local void @add_exact_object_address(ptr noundef %0, ptr noundef %1) #0 {
  %3 = alloca ptr, align 8
  %4 = alloca ptr, align 8
  %5 = alloca ptr, align 8
  store ptr %0, ptr %3, align 8
  store ptr %1, ptr %4, align 8
  call void @llvm.lifetime.start.p0(i64 8, ptr %5) #8
  %6 = load ptr, ptr %4, align 8
  %7 = getelementptr inbounds nuw %struct.ObjectAddresses, ptr %6, i32 0, i32 2
  %8 = load i32, ptr %7, align 8
  %9 = load ptr, ptr %4, align 8
  %10 = getelementptr inbounds nuw %struct.ObjectAddresses, ptr %9, i32 0, i32 3
  %11 = load i32, ptr %10, align 4
  %12 = icmp sge i32 %8, %11
  br i1 %12, label %13, label %29

13:                                               ; preds = %2
  %14 = load ptr, ptr %4, align 8
  %15 = getelementptr inbounds nuw %struct.ObjectAddresses, ptr %14, i32 0, i32 3
  %16 = load i32, ptr %15, align 4
  %17 = mul i32 %16, 2
  store i32 %17, ptr %15, align 4
  %18 = load ptr, ptr %4, align 8
  %19 = getelementptr inbounds nuw %struct.ObjectAddresses, ptr %18, i32 0, i32 0
  %20 = load ptr, ptr %19, align 8
  %21 = load ptr, ptr %4, align 8
  %22 = getelementptr inbounds nuw %struct.ObjectAddresses, ptr %21, i32 0, i32 3
  %23 = load i32, ptr %22, align 4
  %24 = sext i32 %23 to i64
  %25 = mul i64 %24, 12
  %26 = call ptr @repalloc(ptr noundef %20, i64 noundef %25)
  %27 = load ptr, ptr %4, align 8
  %28 = getelementptr inbounds nuw %struct.ObjectAddresses, ptr %27, i32 0, i32 0
  store ptr %26, ptr %28, align 8
  br label %29

29:                                               ; preds = %13, %2
  %30 = load ptr, ptr %4, align 8
  %31 = getelementptr inbounds nuw %struct.ObjectAddresses, ptr %30, i32 0, i32 0
  %32 = load ptr, ptr %31, align 8
  %33 = load ptr, ptr %4, align 8
  %34 = getelementptr inbounds nuw %struct.ObjectAddresses, ptr %33, i32 0, i32 2
  %35 = load i32, ptr %34, align 8
  %36 = sext i32 %35 to i64
  %37 = getelementptr inbounds %struct.ObjectAddress, ptr %32, i64 %36
  store ptr %37, ptr %5, align 8
  %38 = load ptr, ptr %5, align 8
  %39 = load ptr, ptr %3, align 8
  call void @llvm.memcpy.p0.p0.i64(ptr align 4 %38, ptr align 4 %39, i64 12, i1 false)
  %40 = load ptr, ptr %4, align 8
  %41 = getelementptr inbounds nuw %struct.ObjectAddresses, ptr %40, i32 0, i32 2
  %42 = load i32, ptr %41, align 8
  %43 = add i32 %42, 1
  store i32 %43, ptr %41, align 8
  call void @llvm.lifetime.end.p0(i64 8, ptr %5) #8
  ret void
}