; Function Attrs: nounwind uwtable
define dso_local void @add_exact_object_address(ptr noundef readonly captures(none) %0, ptr noundef captures(none) %1) local_unnamed_addr #0 {
  %3 = getelementptr inbounds nuw i8, ptr %1, i64 16
  %4 = load i32, ptr %3, align 8
  %5 = getelementptr inbounds nuw i8, ptr %1, i64 20
  %6 = load i32, ptr %5, align 4
  %.not = icmp slt i32 %4, %6
  %.pre = load ptr, ptr %1, align 8
  br i1 %.not, label %12, label %7

7:                                                ; preds = %2
  %8 = shl i32 %6, 1
  store i32 %8, ptr %5, align 4
  %9 = sext i32 %8 to i64
  %10 = mul nsw i64 %9, 12
  %11 = tail call ptr @repalloc(ptr noundef %.pre, i64 noundef %10) #9
  store ptr %11, ptr %1, align 8
  %.pre11 = load i32, ptr %3, align 8
  br label %12

12:                                               ; preds = %7, %2
  %13 = phi i32 [ %.pre11, %7 ], [ %4, %2 ]
  %14 = phi ptr [ %11, %7 ], [ %.pre, %2 ]
  %15 = sext i32 %13 to i64
  %16 = getelementptr inbounds %struct.ObjectAddress, ptr %14, i64 %15
  tail call void @llvm.memcpy.p0.p0.i64(ptr noundef nonnull align 4 dereferenceable(12) %16, ptr noundef nonnull align 4 dereferenceable(12) %0, i64 12, i1 false)
  %17 = load i32, ptr %3, align 8
  %18 = add i32 %17, 1
  store i32 %18, ptr %3, align 8
  ret void
}